; Function Attrs: nounwind uwtable
define internal ptr @gmac_dup(ptr noundef %0) #0 {
  %2 = tail call i32 @ossl_prov_is_running() #5
  %.not = icmp eq i32 %2, 0
  br i1 %.not, label %gmac_new.exit.thread, label %3

3:                                                ; preds = %1
  %4 = load ptr, ptr %0, align 8, !tbaa !12
  %5 = tail call i32 @ossl_prov_is_running() #5
  %.not.i = icmp eq i32 %5, 0
  br i1 %.not.i, label %gmac_new.exit.thread, label %6

6:                                                ; preds = %3
  %7 = tail call noalias ptr @CRYPTO_zalloc(i64 noundef 40, ptr noundef nonnull @.str, i32 noundef 65) #5
  %8 = icmp eq ptr %7, null
  br i1 %8, label %gmac_new.exit.thread, label %9

9:                                                ; preds = %6
  %10 = tail call ptr @EVP_CIPHER_CTX_new() #5
  %11 = getelementptr inbounds nuw i8, ptr %7, i64 8
  store ptr %10, ptr %11, align 8, !tbaa !3
  %12 = icmp eq ptr %10, null
  br i1 %12, label %gmac_new.exit.thread.sink.split, label %13

13:                                               ; preds = %9
  store ptr %4, ptr %7, align 8, !tbaa !12
  %14 = getelementptr inbounds nuw i8, ptr %0, i64 8
  %15 = load ptr, ptr %14, align 8, !tbaa !3
  %16 = tail call i32 @EVP_CIPHER_CTX_copy(ptr noundef nonnull %10, ptr noundef %15) #5
  %.not11 = icmp eq i32 %16, 0
  br i1 %.not11, label %gmac_free.exit, label %17

17:                                               ; preds = %13
  %18 = getelementptr inbounds nuw i8, ptr %7, i64 16
  %19 = getelementptr inbounds nuw i8, ptr %0, i64 16
  %20 = tail call i32 @ossl_prov_cipher_copy(ptr noundef nonnull %18, ptr noundef nonnull %19) #5
  %.not12 = icmp eq i32 %20, 0
  br i1 %.not12, label %gmac_free.exit, label %gmac_new.exit.thread

gmac_free.exit:                                   ; preds = %17, %13
  %21 = load ptr, ptr %11, align 8, !tbaa !3
  br label %gmac_new.exit.thread.sink.split

gmac_new.exit.thread.sink.split:                  ; preds = %9, %gmac_free.exit
  %.sink = phi ptr [ %21, %gmac_free.exit ], [ null, %9 ]
  tail call void @EVP_CIPHER_CTX_free(ptr noundef %.sink) #5
  %22 = getelementptr inbounds nuw i8, ptr %7, i64 16
  tail call void @ossl_prov_cipher_reset(ptr noundef nonnull %22) #5
  tail call void @CRYPTO_free(ptr noundef nonnull %7, ptr noundef nonnull @.str, i32 noundef 54) #5
  br label %gmac_new.exit.thread

gmac_new.exit.thread:                             ; preds = %gmac_new.exit.thread.sink.split, %6, %3, %17, %1
  %.0 = phi ptr [ null, %1 ], [ %7, %17 ], [ null, %3 ], [ null, %6 ], [ null, %gmac_new.exit.thread.sink.split ]
  ret ptr %.0
}